target datalayout = "e-m:e-p270:32:32-p271:32:32-p272:64:64-i64:64-i128:128-f80:128-n8:16:32:64-S128"
target triple = "x86_64-pc-linux-gnu"

%struct.hashEntry = type { ptr, ptr }
%struct.DdNode = type { i32, i32, ptr, %union.anon, i64 }
%union.anon = type { %struct.DdChildren }
%struct.DdChildren = type { ptr, ptr }
%struct.DdManager = type { %struct.DdNode, ptr, ptr, ptr, ptr, ptr, ptr, ptr, i32, i32, double, double, double, i32, i32, i32, i32, i32, i32, ptr, ptr, %struct.DdSubtable, i32, i32, i32, i32, i32, i32, i32, double, i32, i32, i32, ptr, i64, double, i32, ptr, ptr, ptr, ptr, ptr, ptr, ptr, i32, ptr, ptr, ptr, ptr, ptr, ptr, i32, i32, i32, double, i32, i32, i32, i32, double, double, i32, i32, i32, i32, i32, i32, i32, i32, i32, ptr, ptr, i32, i32, i32, i32, i32, i32, ptr, ptr, ptr, ptr, ptr, ptr, ptr, ptr, i32, i64, i64, i64, i32, i64, i64, double, double, double, double, double, double, i32, ptr, ptr, i64 }
%struct.DdSubtable = type { ptr, i32, i32, i32, i32, i32, i32, i32, i32, i32, i32, i32 }

; Function Attrs: nounwind uwtable
define internal double @bddCorrelationWeightsAux(ptr noundef %0, ptr noundef %1, ptr noundef %2, ptr noundef %3, ptr noundef %4) #0 {
  %6 = alloca double, align 8
  %7 = alloca ptr, align 8
  %8 = alloca ptr, align 8
  %9 = alloca ptr, align 8
  %10 = alloca ptr, align 8
  %11 = alloca ptr, align 8
  %12 = alloca ptr, align 8
  %13 = alloca ptr, align 8
  %14 = alloca ptr, align 8
  %15 = alloca ptr, align 8
  %16 = alloca ptr, align 8
  %17 = alloca double, align 8
  %18 = alloca ptr, align 8
  %19 = alloca double, align 8
  %20 = alloca double, align 8
  %21 = alloca ptr, align 8
  %22 = alloca ptr, align 8
  %23 = alloca i32, align 4
  %24 = alloca i32, align 4
  %25 = alloca i32, align 4
  %26 = alloca ptr, align 8
  store ptr %0, ptr %7, align 8
  store ptr %1, ptr %8, align 8
  store ptr %2, ptr %9, align 8
  store ptr %3, ptr %10, align 8
  store ptr %4, ptr %11, align 8
  %27 = load ptr, ptr %8, align 8
  %28 = load ptr, ptr %9, align 8
  %29 = icmp eq ptr %27, %28
  br i1 %29, label %30, label %31

30:                                               ; preds = %5
  store double 1.000000e+00, ptr %6, align 8
  br label %285

31:                                               ; preds = %5
  %32 = load ptr, ptr %8, align 8
  %33 = load ptr, ptr %9, align 8
  %34 = ptrtoint ptr %33 to i64
  %35 = xor i64 %34, 1
  %36 = inttoptr i64 %35 to ptr
  %37 = icmp eq ptr %32, %36
  br i1 %37, label %38, label %39

38:                                               ; preds = %31
  store double 0.000000e+00, ptr %6, align 8
  br label %285

39:                                               ; preds = %31
  %40 = load ptr, ptr %8, align 8
  %41 = ptrtoint ptr %40 to i64
  %42 = and i64 %41, -2
  %43 = inttoptr i64 %42 to ptr
  %44 = getelementptr inbounds %struct.DdNode, ptr %43, i32 0, i32 4
  %45 = load i64, ptr %44, align 8
  %46 = shl i64 %45, 1
  %47 = load ptr, ptr %8, align 8
  %48 = ptrtoint ptr %47 to i64
  %49 = and i64 %48, 1
  %50 = trunc i64 %49 to i32
  %51 = sext i32 %50 to i64
  %52 = or i64 %46, %51
  %53 = load ptr, ptr %9, align 8
  %54 = ptrtoint ptr %53 to i64
  %55 = and i64 %54, -2
  %56 = inttoptr i64 %55 to ptr
  %57 = getelementptr inbounds %struct.DdNode, ptr %56, i32 0, i32 4
  %58 = load i64, ptr %57, align 8
  %59 = shl i64 %58, 1
  %60 = load ptr, ptr %9, align 8
  %61 = ptrtoint ptr %60 to i64
  %62 = and i64 %61, 1
  %63 = trunc i64 %62 to i32
  %64 = sext i32 %63 to i64
  %65 = or i64 %59, %64
  %66 = icmp sgt i64 %52, %65
  br i1 %66, label %67, label %71

67:                                               ; preds = %39
  %68 = load ptr, ptr %8, align 8
  store ptr %68, ptr %26, align 8
  %69 = load ptr, ptr %9, align 8
  store ptr %69, ptr %8, align 8
  %70 = load ptr, ptr %26, align 8
  store ptr %70, ptr %9, align 8
  br label %71

71:                                               ; preds = %67, %39
  %72 = load ptr, ptr %8, align 8
  %73 = ptrtoint ptr %72 to i64
  %74 = and i64 %73, 1
  %75 = trunc i64 %74 to i32
  %76 = icmp ne i32 %75, 0
  br i1 %76, label %77, label %86

77:                                               ; preds = %71
  %78 = load ptr, ptr %8, align 8
  %79 = ptrtoint ptr %78 to i64
  %80 = xor i64 %79, 1
  %81 = inttoptr i64 %80 to ptr
  store ptr %81, ptr %8, align 8
  %82 = load ptr, ptr %9, align 8
  %83 = ptrtoint ptr %82 to i64
  %84 = xor i64 %83, 1
  %85 = inttoptr i64 %84 to ptr
  store ptr %85, ptr %9, align 8
  br label %86

86:                                               ; preds = %77, %71
  %87 = call noalias ptr @malloc(i64 noundef 16) #4
  store ptr %87, ptr %22, align 8
  %88 = load ptr, ptr %22, align 8
  %89 = icmp eq ptr %88, null
  br i1 %89, label %90, label %93

90:                                               ; preds = %86
  %91 = load ptr, ptr %7, align 8
  %92 = getelementptr inbounds %struct.DdManager, ptr %91, i32 0, i32 86
  store i32 1, ptr %92, align 8
  store double -1.000000e+00, ptr %6, align 8
  br label %285

93:                                               ; preds = %86
  %94 = load ptr, ptr %8, align 8
  %95 = load ptr, ptr %22, align 8
  %96 = getelementptr inbounds %struct.hashEntry, ptr %95, i32 0, i32 0
  store ptr %94, ptr %96, align 8
  %97 = load ptr, ptr %9, align 8
  %98 = load ptr, ptr %22, align 8
  %99 = getelementptr inbounds %struct.hashEntry, ptr %98, i32 0, i32 1
  store ptr %97, ptr %99, align 8
  %100 = load ptr, ptr %11, align 8
  %101 = load ptr, ptr %22, align 8
  %102 = call i32 @st__lookup(ptr noundef %100, ptr noundef %101, ptr noundef %21)
  %103 = icmp ne i32 %102, 0
  br i1 %103, label %104, label %114

104:                                              ; preds = %93
  %105 = load ptr, ptr %21, align 8
  %106 = load double, ptr %105, align 8
  store double %106, ptr %17, align 8
  %107 = load ptr, ptr %22, align 8
  %108 = icmp ne ptr %107, null
  br i1 %108, label %109, label %111

109:                                              ; preds = %104
  %110 = load ptr, ptr %22, align 8
  call void @free(ptr noundef %110) #5
  store ptr null, ptr %22, align 8
  br label %112

111:                                              ; preds = %104
  br label %112

112:                                              ; preds = %111, %109
  %113 = load double, ptr %17, align 8
  store double %113, ptr %6, align 8
  br label %285

114:                                              ; preds = %93
  %115 = load ptr, ptr %9, align 8
  %116 = ptrtoint ptr %115 to i64
  %117 = and i64 %116, -2
  %118 = inttoptr i64 %117 to ptr
  store ptr %118, ptr %14, align 8
  %119 = load ptr, ptr %8, align 8
  %120 = getelementptr inbounds %struct.DdNode, ptr %119, i32 0, i32 0
  %121 = load i32, ptr %120, align 8
  %122 = icmp eq i32 %121, 2147483647
  br i1 %122, label %123, label %127

123:                                              ; preds = %114
  %124 = load ptr, ptr %8, align 8
  %125 = getelementptr inbounds %struct.DdNode, ptr %124, i32 0, i32 0
  %126 = load i32, ptr %125, align 8
  br label %137

127:                                              ; preds = %114
  %128 = load ptr, ptr %7, align 8
  %129 = getelementptr inbounds %struct.DdManager, ptr %128, i32 0, i32 37
  %130 = load ptr, ptr %129, align 8
  %131 = load ptr, ptr %8, align 8
  %132 = getelementptr inbounds %struct.DdNode, ptr %131, i32 0, i32 0
  %133 = load i32, ptr %132, align 8
  %134 = zext i32 %133 to i64
  %135 = getelementptr inbounds i32, ptr %130, i64 %134
  %136 = load i32, ptr %135, align 4
  br label %137

137:                                              ; preds = %127, %123
  %138 = phi i32 [ %126, %123 ], [ %136, %127 ]
  store i32 %138, ptr %23, align 4
  %139 = load ptr, ptr %14, align 8
  %140 = getelementptr inbounds %struct.DdNode, ptr %139, i32 0, i32 0
  %141 = load i32, ptr %140, align 8
  %142 = icmp eq i32 %141, 2147483647
  br i1 %142, label %143, label %147

143:                                              ; preds = %137
  %144 = load ptr, ptr %14, align 8
  %145 = getelementptr inbounds %struct.DdNode, ptr %144, i32 0, i32 0
  %146 = load i32, ptr %145, align 8
  br label %157

147:                                              ; preds = %137
  %148 = load ptr, ptr %7, align 8
  %149 = getelementptr inbounds %struct.DdManager, ptr %148, i32 0, i32 37
  %150 = load ptr, ptr %149, align 8
  %151 = load ptr, ptr %14, align 8
  %152 = getelementptr inbounds %struct.DdNode, ptr %151, i32 0, i32 0
  %153 = load i32, ptr %152, align 8
  %154 = zext i32 %153 to i64
  %155 = getelementptr inbounds i32, ptr %150, i64 %154
  %156 = load i32, ptr %155, align 4
  br label %157

157:                                              ; preds = %147, %143
  %158 = phi i32 [ %146, %143 ], [ %156, %147 ]
  store i32 %158, ptr %24, align 4
  %159 = load i32, ptr %23, align 4
  %160 = load i32, ptr %24, align 4
  %161 = icmp sle i32 %159, %160
  br i1 %161, label %162, label %174

162:                                              ; preds = %157
  %163 = load ptr, ptr %8, align 8
  %164 = getelementptr inbounds %struct.DdNode, ptr %163, i32 0, i32 3
  %165 = getelementptr inbounds %struct.DdChildren, ptr %164, i32 0, i32 0
  %166 = load ptr, ptr %165, align 8
  store ptr %166, ptr %12, align 8
  %167 = load ptr, ptr %8, align 8
  %168 = getelementptr inbounds %struct.DdNode, ptr %167, i32 0, i32 3
  %169 = getelementptr inbounds %struct.DdChildren, ptr %168, i32 0, i32 1
  %170 = load ptr, ptr %169, align 8
  store ptr %170, ptr %13, align 8
  %171 = load ptr, ptr %8, align 8
  %172 = getelementptr inbounds %struct.DdNode, ptr %171, i32 0, i32 0
  %173 = load i32, ptr %172, align 8
  store i32 %173, ptr %25, align 4
  br label %179

174:                                              ; preds = %157
  %175 = load ptr, ptr %8, align 8
  store ptr %175, ptr %13, align 8
  store ptr %175, ptr %12, align 8
  %176 = load ptr, ptr %14, align 8
  %177 = getelementptr inbounds %struct.DdNode, ptr %176, i32 0, i32 0
  %178 = load i32, ptr %177, align 8
  store i32 %178, ptr %25, align 4
  br label %179

179:                                              ; preds = %174, %162
  %180 = load i32, ptr %24, align 4
  %181 = load i32, ptr %23, align 4
  %182 = icmp sle i32 %180, %181
  br i1 %182, label %183, label %192

183:                                              ; preds = %179
  %184 = load ptr, ptr %14, align 8
  %185 = getelementptr inbounds %struct.DdNode, ptr %184, i32 0, i32 3
  %186 = getelementptr inbounds %struct.DdChildren, ptr %185, i32 0, i32 0
  %187 = load ptr, ptr %186, align 8
  store ptr %187, ptr %15, align 8
  %188 = load ptr, ptr %14, align 8
  %189 = getelementptr inbounds %struct.DdNode, ptr %188, i32 0, i32 3
  %190 = getelementptr inbounds %struct.DdChildren, ptr %189, i32 0, i32 1
  %191 = load ptr, ptr %190, align 8
  store ptr %191, ptr %16, align 8
  br label %194

192:                                              ; preds = %179
  %193 = load ptr, ptr %14, align 8
  store ptr %193, ptr %16, align 8
  store ptr %193, ptr %15, align 8
  br label %194

194:                                              ; preds = %192, %183
  %195 = load ptr, ptr %9, align 8
  %196 = load ptr, ptr %14, align 8
  %197 = icmp ne ptr %195, %196
  br i1 %197, label %198, label %207

198:                                              ; preds = %194
  %199 = load ptr, ptr %15, align 8
  %200 = ptrtoint ptr %199 to i64
  %201 = xor i64 %200, 1
  %202 = inttoptr i64 %201 to ptr
  store ptr %202, ptr %15, align 8
  %203 = load ptr, ptr %16, align 8
  %204 = ptrtoint ptr %203 to i64
  %205 = xor i64 %204, 1
  %206 = inttoptr i64 %205 to ptr
  store ptr %206, ptr %16, align 8
  br label %207

207:                                              ; preds = %198, %194
  %208 = load ptr, ptr %7, align 8
  %209 = load ptr, ptr %12, align 8
  %210 = load ptr, ptr %15, align 8
  %211 = load ptr, ptr %10, align 8
  %212 = load ptr, ptr %11, align 8
  %213 = call double @bddCorrelationWeightsAux(ptr noundef %208, ptr noundef %209, ptr noundef %210, ptr noundef %211, ptr noundef %212)
  %214 = load ptr, ptr %10, align 8
  %215 = load i32, ptr %25, align 4
  %216 = sext i32 %215 to i64
  %217 = getelementptr inbounds double, ptr %214, i64 %216
  %218 = load double, ptr %217, align 8
  %219 = fmul double %213, %218
  store double %219, ptr %19, align 8
  %220 = load double, ptr %19, align 8
  %221 = fcmp oeq double %220, -1.000000e+00
  br i1 %221, label %222, label %229

222:                                              ; preds = %207
  %223 = load ptr, ptr %22, align 8
  %224 = icmp ne ptr %223, null
  br i1 %224, label %225, label %227

225:                                              ; preds = %222
  %226 = load ptr, ptr %22, align 8
  call void @free(ptr noundef %226) #5
  store ptr null, ptr %22, align 8
  br label %228

227:                                              ; preds = %222
  br label %228

228:                                              ; preds = %227, %225
  store double -1.000000e+00, ptr %6, align 8
  br label %285

229:                                              ; preds = %207
  %230 = load ptr, ptr %7, align 8
  %231 = load ptr, ptr %13, align 8
  %232 = load ptr, ptr %16, align 8
  %233 = load ptr, ptr %10, align 8
  %234 = load ptr, ptr %11, align 8
  %235 = call double @bddCorrelationWeightsAux(ptr noundef %230, ptr noundef %231, ptr noundef %232, ptr noundef %233, ptr noundef %234)
  %236 = load ptr, ptr %10, align 8
  %237 = load i32, ptr %25, align 4
  %238 = sext i32 %237 to i64
  %239 = getelementptr inbounds double, ptr %236, i64 %238
  %240 = load double, ptr %239, align 8
  %241 = fsub double 1.000000e+00, %240
  %242 = fmul double %235, %241
  store double %242, ptr %20, align 8
  %243 = load double, ptr %20, align 8
  %244 = fcmp oeq double %243, -1.000000e+00
  br i1 %244, label %245, label %252

245:                                              ; preds = %229
  %246 = load ptr, ptr %22, align 8
  %247 = icmp ne ptr %246, null
  br i1 %247, label %248, label %250

248:                                              ; preds = %245
  %249 = load ptr, ptr %22, align 8
  call void @free(ptr noundef %249) #5
  store ptr null, ptr %22, align 8
  br label %251

250:                                              ; preds = %245
  br label %251

251:                                              ; preds = %250, %248
  store double -1.000000e+00, ptr %6, align 8
  br label %285

252:                                              ; preds = %229
  %253 = load double, ptr %19, align 8
  %254 = load double, ptr %20, align 8
  %255 = fadd double %253, %254
  store double %255, ptr %17, align 8
  %256 = call noalias ptr @malloc(i64 noundef 8) #4
  store ptr %256, ptr %18, align 8
  %257 = load ptr, ptr %18, align 8
  %258 = icmp eq ptr %257, null
  br i1 %258, label %259, label %262

259:                                              ; preds = %252
  %260 = load ptr, ptr %7, align 8
  %261 = getelementptr inbounds %struct.DdManager, ptr %260, i32 0, i32 86
  store i32 1, ptr %261, align 8
  store double -1.000000e+00, ptr %6, align 8
  br label %285

262:                                              ; preds = %252
  %263 = load double, ptr %17, align 8
  %264 = load ptr, ptr %18, align 8
  store double %263, ptr %264, align 8
  %265 = load ptr, ptr %11, align 8
  %266 = load ptr, ptr %22, align 8
  %267 = load ptr, ptr %18, align 8
  %268 = call i32 @st__insert(ptr noundef %265, ptr noundef %266, ptr noundef %267)
  %269 = icmp eq i32 %268, -10000
  br i1 %269, label %270, label %283

270:                                              ; preds = %262
  %271 = load ptr, ptr %22, align 8
  %272 = icmp ne ptr %271, null
  br i1 %272, label %273, label %275

273:                                              ; preds = %270
  %274 = load ptr, ptr %22, align 8
  call void @free(ptr noundef %274) #5
  store ptr null, ptr %22, align 8
  br label %276

275:                                              ; preds = %270
  br label %276

276:                                              ; preds = %275, %273
  %277 = load ptr, ptr %18, align 8
  %278 = icmp ne ptr %277, null
  br i1 %278, label %279, label %281

279:                                              ; preds = %276
  %280 = load ptr, ptr %18, align 8
  call void @free(ptr noundef %280) #5
  store ptr null, ptr %18, align 8
  br label %282

281:                                              ; preds = %276
  br label %282

282:                                              ; preds = %281, %279
  store double -1.000000e+00, ptr %6, align 8
  br label %285

283:                                              ; preds = %262
  %284 = load double, ptr %17, align 8
  store double %284, ptr %6, align 8
  br label %285

285:                                              ; preds = %283, %282, %259, %251, %228, %112, %90, %38, %30
  %286 = load double, ptr %6, align 8
  ret double %286
}