; Function Attrs: nounwind uwtable
define internal fastcc double @bddCorrelationWeightsAux(ptr noundef %0, ptr noundef %1, ptr noundef %2, ptr noundef %3, ptr noundef nonnull %4) unnamed_addr #0 {
  %6 = alloca ptr, align 8
  %7 = icmp eq ptr %1, %2
  br i1 %7, label %113, label %8

8:                                                ; preds = %5
  %9 = ptrtoint ptr %2 to i64
  %10 = xor i64 %9, 1
  %11 = inttoptr i64 %10 to ptr
  %12 = icmp eq ptr %1, %11
  br i1 %12, label %113, label %13

13:                                               ; preds = %8
  %14 = ptrtoint ptr %1 to i64
  %15 = and i64 %14, -2
  %16 = inttoptr i64 %15 to ptr
  %17 = getelementptr inbounds nuw i8, ptr %16, i64 32
  %18 = load i64, ptr %17, align 8
  %19 = shl i64 %18, 1
  %20 = and i64 %14, 1
  %21 = or disjoint i64 %19, %20
  %22 = and i64 %9, -2
  %23 = inttoptr i64 %22 to ptr
  %24 = getelementptr inbounds nuw i8, ptr %23, i64 32
  %25 = load i64, ptr %24, align 8
  %26 = shl i64 %25, 1
  %27 = and i64 %9, 1
  %28 = or disjoint i64 %26, %27
  %29 = icmp sgt i64 %21, %28
  %spec.select = select i1 %29, ptr %1, ptr %2
  %spec.select108 = select i1 %29, ptr %2, ptr %1
  %30 = ptrtoint ptr %spec.select108 to i64
  %31 = and i64 %30, 1
  %.not = icmp eq i64 %31, 0
  %32 = and i64 %30, -2
  %33 = inttoptr i64 %32 to ptr
  %34 = ptrtoint ptr %spec.select to i64
  %35 = xor i64 %34, 1
  %36 = inttoptr i64 %35 to ptr
  %.187 = select i1 %.not, ptr %spec.select, ptr %36
  %.1 = select i1 %.not, ptr %spec.select108, ptr %33
  %37 = tail call noalias dereferenceable_or_null(16) ptr @malloc(i64 noundef 16) #8
  %38 = icmp eq ptr %37, null
  br i1 %38, label %39, label %41

39:                                               ; preds = %13
  %40 = getelementptr inbounds nuw i8, ptr %0, i64 624
  store i32 1, ptr %40, align 8
  br label %113

41:                                               ; preds = %13
  store ptr %.1, ptr %37, align 8
  %42 = getelementptr inbounds nuw i8, ptr %37, i64 8
  store ptr %.187, ptr %42, align 8
  %43 = call i32 @st__lookup(ptr noundef nonnull %4, ptr noundef nonnull %37, ptr noundef nonnull %6) #7
  %.not104 = icmp eq i32 %43, 0
  br i1 %.not104, label %47, label %44

44:                                               ; preds = %41
  %45 = load ptr, ptr %6, align 8
  %46 = load double, ptr %45, align 8
  call void @free(ptr noundef nonnull %37) #7
  br label %113

47:                                               ; preds = %41
  %48 = ptrtoint ptr %.187 to i64
  %49 = and i64 %48, -2
  %50 = inttoptr i64 %49 to ptr
  %51 = load i32, ptr %.1, align 8
  %52 = icmp eq i32 %51, 2147483647
  br i1 %52, label %59, label %53

53:                                               ; preds = %47
  %54 = getelementptr inbounds nuw i8, ptr %0, i64 312
  %55 = load ptr, ptr %54, align 8
  %56 = zext i32 %51 to i64
  %57 = getelementptr inbounds nuw i32, ptr %55, i64 %56
  %58 = load i32, ptr %57, align 4
  br label %59

59:                                               ; preds = %47, %53
  %60 = phi i32 [ %58, %53 ], [ 2147483647, %47 ]
  %61 = load i32, ptr %50, align 8
  %62 = icmp eq i32 %61, 2147483647
  br i1 %62, label %69, label %63

63:                                               ; preds = %59
  %64 = getelementptr inbounds nuw i8, ptr %0, i64 312
  %65 = load ptr, ptr %64, align 8
  %66 = zext i32 %61 to i64
  %67 = getelementptr inbounds nuw i32, ptr %65, i64 %66
  %68 = load i32, ptr %67, align 4
  br label %69

69:                                               ; preds = %59, %63
  %70 = phi i32 [ %68, %63 ], [ 2147483647, %59 ]
  %.not105 = icmp sgt i32 %60, %70
  br i1 %.not105, label %76, label %71

71:                                               ; preds = %69
  %72 = getelementptr inbounds nuw i8, ptr %.1, i64 16
  %73 = load ptr, ptr %72, align 8
  %74 = getelementptr inbounds nuw i8, ptr %.1, i64 24
  %75 = load ptr, ptr %74, align 8
  br label %76

76:                                               ; preds = %69, %71
  %.084 = phi i32 [ %51, %71 ], [ %61, %69 ]
  %.089 = phi ptr [ %75, %71 ], [ %.1, %69 ]
  %.088 = phi ptr [ %73, %71 ], [ %.1, %69 ]
  %.not106 = icmp sgt i32 %70, %60
  br i1 %.not106, label %82, label %77

77:                                               ; preds = %76
  %78 = getelementptr inbounds nuw i8, ptr %50, i64 16
  %79 = load ptr, ptr %78, align 8
  %80 = getelementptr inbounds nuw i8, ptr %50, i64 24
  %81 = load ptr, ptr %80, align 8
  br label %82

82:                                               ; preds = %76, %77
  %.092 = phi ptr [ %79, %77 ], [ %50, %76 ]
  %.090 = phi ptr [ %81, %77 ], [ %50, %76 ]
  %.not107 = icmp eq ptr %.187, %50
  %83 = ptrtoint ptr %.092 to i64
  %84 = xor i64 %83, 1
  %85 = inttoptr i64 %84 to ptr
  %.193 = select i1 %.not107, ptr %.092, ptr %85
  %86 = call fastcc double @bddCorrelationWeightsAux(ptr noundef %0, ptr noundef %.088, ptr noundef %.193, ptr noundef %3, ptr noundef %4)
  %87 = sext i32 %.084 to i64
  %88 = getelementptr inbounds double, ptr %3, i64 %87
  %89 = load double, ptr %88, align 8
  %90 = fmul double %86, %89
  %91 = fcmp oeq double %90, -1.000000e+00
  br i1 %91, label %92, label %93

92:                                               ; preds = %82
  call void @free(ptr noundef nonnull %37) #7
  br label %113

93:                                               ; preds = %82
  %94 = ptrtoint ptr %.090 to i64
  %95 = xor i64 %94, 1
  %96 = inttoptr i64 %95 to ptr
  %.191 = select i1 %.not107, ptr %.090, ptr %96
  %97 = call fastcc double @bddCorrelationWeightsAux(ptr noundef %0, ptr noundef %.089, ptr noundef %.191, ptr noundef nonnull %3, ptr noundef %4)
  %98 = load double, ptr %88, align 8
  %99 = fsub double 1.000000e+00, %98
  %100 = fmul double %97, %99
  %101 = fcmp oeq double %100, -1.000000e+00
  br i1 %101, label %102, label %103

102:                                              ; preds = %93
  call void @free(ptr noundef nonnull %37) #7
  br label %113

103:                                              ; preds = %93
  %104 = call noalias dereferenceable_or_null(8) ptr @malloc(i64 noundef 8) #8
  %105 = icmp eq ptr %104, null
  br i1 %105, label %106, label %108

106:                                              ; preds = %103
  %107 = getelementptr inbounds nuw i8, ptr %0, i64 624
  store i32 1, ptr %107, align 8
  br label %113

108:                                              ; preds = %103
  %109 = fadd double %90, %100
  store double %109, ptr %104, align 8
  %110 = call i32 @st__insert(ptr noundef nonnull %4, ptr noundef nonnull %37, ptr noundef nonnull %104) #7
  %111 = icmp eq i32 %110, -10000
  br i1 %111, label %112, label %113

112:                                              ; preds = %108
  call void @free(ptr noundef nonnull %37) #7
  call void @free(ptr noundef nonnull %104) #7
  br label %113

113:                                              ; preds = %108, %8, %5, %112, %106, %102, %92, %44, %39
  %.0 = phi double [ -1.000000e+00, %39 ], [ %46, %44 ], [ -1.000000e+00, %92 ], [ -1.000000e+00, %102 ], [ -1.000000e+00, %106 ], [ -1.000000e+00, %112 ], [ 1.000000e+00, %5 ], [ 0.000000e+00, %8 ], [ %109, %108 ]
  ret double %.0
}